target datalayout = "e-m:e-p270:32:32-p271:32:32-p272:64:64-i64:64-i128:128-f80:128-n8:16:32:64-S128"
target triple = "x86_64-pc-linux-gnu"

%class.QModelIndex = type { i32, i32, i64, ptr }
%class.QFlags = type { i32 }
%class.QFlag = type { i32 }

; Function Attrs: mustprogress nounwind uwtable
define linkonce_odr noundef i32 @_ZNK5QFlagcvjEv(ptr noundef nonnull align 4 dereferenceable(4) %0) #0 comdat align 2 {
  %2 = alloca ptr, align 8
  store ptr %0, ptr %2, align 8
  %3 = load ptr, ptr %2, align 8
  %4 = getelementptr inbounds %class.QFlag, ptr %3, i32 0, i32 0
  %5 = load i32, ptr %4, align 4
  ret i32 %5
}

; Function Attrs: mustprogress nounwind uwtable
define linkonce_odr void @_ZN6QFlagsIN2Qt8ItemFlagEEC2E5QFlag(ptr noundef nonnull align 4 dereferenceable(4) %0, i32 %1) unnamed_addr #0 comdat align 2 {
  %3 = alloca %class.QFlag, align 4
  %4 = alloca ptr, align 8
  %5 = getelementptr inbounds %class.QFlag, ptr %3, i32 0, i32 0
  store i32 %1, ptr %5, align 4
  store ptr %0, ptr %4, align 8
  %6 = load ptr, ptr %4, align 8
  %7 = getelementptr inbounds %class.QFlags, ptr %6, i32 0, i32 0
  %8 = call noundef i32 @_ZNK5QFlagcvjEv(ptr noundef nonnull align 4 dereferenceable(4) %3) #13
  store i32 %8, ptr %7, align 4
  ret void
}

; Function Attrs: mustprogress nounwind uwtable
define linkonce_odr void @_ZN5QFlagC2Ej(ptr noundef nonnull align 4 dereferenceable(4) %0, i32 noundef %1) unnamed_addr #0 comdat align 2 {
  %3 = alloca ptr, align 8
  %4 = alloca i32, align 4
  store ptr %0, ptr %3, align 8
  store i32 %1, ptr %4, align 4
  %5 = load ptr, ptr %3, align 8
  %6 = getelementptr inbounds %class.QFlag, ptr %5, i32 0, i32 0
  %7 = load i32, ptr %4, align 4
  store i32 %7, ptr %6, align 4
  ret void
}

; Function Attrs: mustprogress nounwind uwtable
define linkonce_odr i32 @_ZNK6QFlagsIN2Qt8ItemFlagEEorES1_(ptr noundef nonnull align 4 dereferenceable(4) %0, i32 noundef %1) #0 comdat align 2 {
  %3 = alloca %class.QFlags, align 4
  %4 = alloca ptr, align 8
  %5 = alloca i32, align 4
  %6 = alloca %class.QFlag, align 4
  store ptr %0, ptr %4, align 8
  store i32 %1, ptr %5, align 4
  %7 = load ptr, ptr %4, align 8
  %8 = getelementptr inbounds %class.QFlags, ptr %7, i32 0, i32 0
  %9 = load i32, ptr %8, align 4
  %10 = load i32, ptr %5, align 4
  %11 = or i32 %9, %10
  call void @_ZN5QFlagC2Ej(ptr noundef nonnull align 4 dereferenceable(4) %6, i32 noundef %11) #13
  %12 = getelementptr inbounds %class.QFlag, ptr %6, i32 0, i32 0
  %13 = load i32, ptr %12, align 4
  call void @_ZN6QFlagsIN2Qt8ItemFlagEEC2E5QFlag(ptr noundef nonnull align 4 dereferenceable(4) %3, i32 %13) #13
  %14 = getelementptr inbounds %class.QFlags, ptr %3, i32 0, i32 0
  %15 = load i32, ptr %14, align 4
  ret i32 %15
}

; Function Attrs: mustprogress nounwind uwtable
define linkonce_odr noundef zeroext i1 @_ZNK11QModelIndex7isValidEv(ptr noundef nonnull align 8 dereferenceable(24) %0) #0 comdat align 2 {
  %2 = alloca ptr, align 8
  store ptr %0, ptr %2, align 8
  %3 = load ptr, ptr %2, align 8
  %4 = getelementptr inbounds %class.QModelIndex, ptr %3, i32 0, i32 0
  %5 = load i32, ptr %4, align 8
  %6 = icmp sge i32 %5, 0
  br i1 %6, label %7, label %15

7:                                                ; preds = %1
  %8 = getelementptr inbounds %class.QModelIndex, ptr %3, i32 0, i32 1
  %9 = load i32, ptr %8, align 4
  %10 = icmp sge i32 %9, 0
  br i1 %10, label %11, label %15

11:                                               ; preds = %7
  %12 = getelementptr inbounds %class.QModelIndex, ptr %3, i32 0, i32 3
  %13 = load ptr, ptr %12, align 8
  %14 = icmp ne ptr %13, null
  br label %15

15:                                               ; preds = %11, %7, %1
  %16 = phi i1 [ false, %7 ], [ false, %1 ], [ %14, %11 ]
  ret i1 %16
}

; Function Attrs: mustprogress uwtable
define i32 @_ZNK17TrafficTypesModel5flagsERK11QModelIndex(ptr noundef nonnull align 8 dereferenceable(56) %0, ptr noundef nonnull align 8 dereferenceable(24) %1) unnamed_addr #1 align 2 {
  %3 = alloca %class.QFlags, align 4
  %4 = alloca ptr, align 8
  %5 = alloca ptr, align 8
  %6 = alloca %class.QFlags, align 4
  store ptr %0, ptr %4, align 8
  store ptr %1, ptr %5, align 8
  %7 = load ptr, ptr %4, align 8
  %8 = load ptr, ptr %5, align 8
  %9 = call i32 @_ZNK18QAbstractListModel5flagsERK11QModelIndex(ptr noundef nonnull align 8 dereferenceable(16) %7, ptr noundef nonnull align 8 dereferenceable(24) %8)
  %10 = getelementptr inbounds %class.QFlags, ptr %6, i32 0, i32 0
  store i32 %9, ptr %10, align 4
  %11 = load ptr, ptr %5, align 8
  %12 = call noundef zeroext i1 @_ZNK11QModelIndex7isValidEv(ptr noundef nonnull align 8 dereferenceable(24) %11) #13
  br i1 %12, label %13, label %16

13:                                               ; preds = %2
  %14 = call i32 @_ZNK6QFlagsIN2Qt8ItemFlagEEorES1_(ptr noundef nonnull align 4 dereferenceable(4) %6, i32 noundef 16) #13
  %15 = getelementptr inbounds %class.QFlags, ptr %3, i32 0, i32 0
  store i32 %14, ptr %15, align 4
  br label %17

16:                                               ; preds = %2
  call void @llvm.memcpy.p0.p0.i64(ptr align 4 %3, ptr align 4 %6, i64 4, i1 false)
  br label %17

17:                                               ; preds = %16, %13
  %18 = getelementptr inbounds %class.QFlags, ptr %3, i32 0, i32 0
  %19 = load i32, ptr %18, align 4
  ret i32 %19
}