; Function Attrs: mustprogress uwtable
define i32 @_ZNK17TrafficTypesModel5flagsERK11QModelIndex(ptr noundef nonnull align 8 dereferenceable(56) %0, ptr noundef nonnull align 8 dereferenceable(24) %1) unnamed_addr #3 align 2 {
_ZNK11QModelIndex7isValidEv.exit.thread:
  %2 = tail call i32 @_ZNK18QAbstractListModel5flagsERK11QModelIndex(ptr noundef nonnull align 8 dereferenceable(16) %0, ptr noundef nonnull align 8 dereferenceable(24) %1)
  %3 = load i32, ptr %1, align 8
  %4 = icmp sgt i32 %3, -1
  %5 = getelementptr inbounds i8, ptr %1, i64 4
  %6 = load i32, ptr %5, align 4
  %7 = icmp sgt i32 %6, -1
  %or.cond.i = select i1 %4, i1 %7, i1 false
  %8 = getelementptr inbounds i8, ptr %1, i64 16
  %9 = load ptr, ptr %8, align 8
  %10 = icmp ne ptr %9, null
  %or.cond = select i1 %or.cond.i, i1 %10, i1 false
  %11 = or i32 %2, 16
  %.sroa.0.0 = select i1 %or.cond, i32 %11, i32 %2
  ret i32 %.sroa.0.0
}